; Function Attrs: nounwind uwtable
define hidden void @av1_inv_txfm2d_add_32x64_c(ptr noundef readonly captures(none) %0, ptr noundef captures(none) %1, i32 noundef %2, i8 noundef zeroext %3, i32 noundef %4) local_unnamed_addr #5 {
  %6 = alloca [2048 x i32], align 16
  %7 = alloca [2176 x i32], align 32
  call void @llvm.memcpy.p0.p0.i64(ptr noundef nonnull align 16 dereferenceable(4096) %6, ptr noundef nonnull align 4 dereferenceable(4096) %0, i64 4096, i1 false)
  %8 = getelementptr inbounds nuw i8, ptr %6, i64 4096
  call void @llvm.memset.p0.i64(ptr noundef nonnull align 16 dereferenceable(4096) %8, i8 0, i64 4096, i1 false)
  call fastcc void @inv_txfm2d_add_facade(ptr noundef nonnull %6, ptr noundef %1, i32 noundef %2, ptr noundef %7, i8 noundef zeroext %3, i8 noundef zeroext 11, i32 noundef %4)
  ret void
}